TN:
SF:/mnt/c/Users/mount/NAS/MattDocuments/TORC/MultithreadedParticleFilter/src/helper_functions.cpp
FN:46,57,_Z14saveStateToCSVRK5StateRKNSt7__cxx1112basic_stringIcSt11char_traitsIcESaIcEEE
FN:59,70,_Z22saveSensorReadingToCSVdRKNSt7__cxx1112basic_stringIcSt11char_traitsIcESaIcEEE
FN:72,78,_Z14calculateErrorRK5StateS1_
FNDA:0,_Z14saveStateToCSVRK5StateRKNSt7__cxx1112basic_stringIcSt11char_traitsIcESaIcEEE
FNDA:0,_Z22saveSensorReadingToCSVdRKNSt7__cxx1112basic_stringIcSt11char_traitsIcESaIcEEE
FNDA:106,_Z14calculateErrorRK5StateS1_
FNF:3
FNH:1
DA:46,0
DA:48,0
DA:49,0
DA:50,0
DA:51,0
DA:54,0
DA:55,0
DA:56,0
DA:57,0
DA:59,0
DA:61,0
DA:62,0
DA:63,0
DA:64,0
DA:67,0
DA:68,0
DA:69,0
DA:70,0
DA:72,106
DA:74,106
DA:75,106
DA:77,106
LF:22
LH:4
end_of_record
TN:
SF:/mnt/c/Users/mount/NAS/MattDocuments/TORC/MultithreadedParticleFilter/src/particle_filter.cpp
FN:100,113,_ZN14ParticleFilter10initializeEv
FN:115,125,_ZNK14ParticleFilter7getXHatEv
FN:127,137,_ZN14ParticleFilter15mutateParticlesERKSt6vectorIdSaIdEE
FN:139,149,_ZN14ParticleFilter14propogateStateERK5State
FN:151,161,_ZN14ParticleFilter13updateWeightsEdd
FN:163,173,_ZN14ParticleFilter8resampleEv
FN:175,196,_ZNK14ParticleFilter24saveParticleStatesToFileERKNSt7__cxx1112basic_stringIcSt11char_traitsIcESaIcEEE
FN:200,217,_ZNK14ParticleFilter21getXHatSingleThreadedEv
FN:219,259,_ZNK14ParticleFilter20getXHatMultiThreadedEv
FN:225,236,_ZZNK14ParticleFilter20getXHatMultiThreadedEvENKUlRKSt6vectorI5StateSaIS1_EERKS0_IdSaIdEERKS0_IlSaIlEEE_clES5_S9_SD_
FN:261,277,_ZN14ParticleFilter28mutateParticlesSingleThrededERKSt6vectorIdSaIdEE
FN:279,315,_ZN14ParticleFilter28mutateParticlesMultiThreadedERKSt6vectorIdSaIdEE
FN:285,301,_ZZN14ParticleFilter28mutateParticlesMultiThreadedERKSt6vectorIdSaIdEEENKUlRKS0_IlSaIlEEmE_clES8_m
FN:317,327,_ZN14ParticleFilter28propogateStateSingleThreadedERK5State
FN:329,355,_ZN14ParticleFilter27propogateStateMultiThreadedERK5State
FN:335,343,_ZZN14ParticleFilter27propogateStateMultiThreadedERK5StateENKUlRKSt6vectorIS0_SaIS0_EES2_RKS3_IlSaIlEEE_clES7_S2_SB_
FN:357,378,_ZN14ParticleFilter27updateWeightsSingleThreadedEdd
FN:380,423,_ZN14ParticleFilter26updateWeightsMultiThreadedEdd
FN:386,392,_ZZN14ParticleFilter26updateWeightsMultiThreadedEddENKUlRKSt6vectorI5StateSaIS1_EERS0_IdSaIdEERKS0_IlSaIlEEE_clES5_S8_SC_
FN:394,403,_ZZN14ParticleFilter26updateWeightsMultiThreadedEddENKUlddRSt6vectorIdSaIdEES3_RKS0_IlSaIlEEE_clEddS3_S3_S7_
FN:425,465,_ZN14ParticleFilter22resampleSingleThreadedEv
FN:467,539,_ZN14ParticleFilter21resampleMultiThreadedEv
FN:473,498,_ZZN14ParticleFilter21resampleMultiThreadedEvENKUlRKSt6vectorIdSaIdEEddRS0_IlSaIlEERKS6_E_clES4_ddS7_S9_
FN:500,509,_ZZN14ParticleFilter21resampleMultiThreadedEvENKUlRKSt6vectorIlSaIlEERKS0_I5StateSaIS5_EERS7_S4_E_clES4_S9_SA_S4_
FN:541,605,_ZN14ParticleFilter30workEfficientParallelPrefixSumERKSt6vectorIdSaIdEERS2_
FN:547,560,_ZZN14ParticleFilter30workEfficientParallelPrefixSumERKSt6vectorIdSaIdEERS2_ENKUlllS4_S5_E_clEllS4_S5_
FN:562,568,_ZZN14ParticleFilter30workEfficientParallelPrefixSumERKSt6vectorIdSaIdEERS2_ENKUllldS5_E_clElldS5_
FN:59,65,_ZL10splitmix64Rm
FN:607,619,_ZN14ParticleFilter16normalizeWeightsEv
FN:621,670,_ZN14ParticleFilter24normalizeWeightsParallelEv
FN:627,635,_ZZN14ParticleFilter24normalizeWeightsParallelEvENKUlRSt6vectorIdSaIdEERKS0_IlSaIlEEE_clES3_S7_
FN:637,644,_ZZN14ParticleFilter24normalizeWeightsParallelEvENKUlRSt6vectorIdSaIdEEdRKS0_IlSaIlEEE_clES3_dS7_
FN:67,88,_ZN14ParticleFilterC2ERK9PF_ParamsSt8functionIFddddEES3_IFvR5StateRKS6_EEb
FN:90,98,_ZN14ParticleFilter19initializeVariablesEv
FNDA:9,_ZN14ParticleFilter10initializeEv
FNDA:106,_ZNK14ParticleFilter7getXHatEv
FNDA:100,_ZN14ParticleFilter15mutateParticlesERKSt6vectorIdSaIdEE
FNDA:102,_ZN14ParticleFilter14propogateStateERK5State
FNDA:104,_ZN14ParticleFilter13updateWeightsEdd
FNDA:100,_ZN14ParticleFilter8resampleEv
FNDA:0,_ZNK14ParticleFilter24saveParticleStatesToFileERKNSt7__cxx1112basic_stringIcSt11char_traitsIcESaIcEEE
FNDA:53,_ZNK14ParticleFilter21getXHatSingleThreadedEv
FNDA:53,_ZNK14ParticleFilter20getXHatMultiThreadedEv
FNDA:1696,_ZZNK14ParticleFilter20getXHatMultiThreadedEvENKUlRKSt6vectorI5StateSaIS1_EERKS0_IdSaIdEERKS0_IlSaIlEEE_clES5_S9_SD_
FNDA:50,_ZN14ParticleFilter28mutateParticlesSingleThrededERKSt6vectorIdSaIdEE
FNDA:50,_ZN14ParticleFilter28mutateParticlesMultiThreadedERKSt6vectorIdSaIdEE
FNDA:1600,_ZZN14ParticleFilter28mutateParticlesMultiThreadedERKSt6vectorIdSaIdEEENKUlRKS0_IlSaIlEEmE_clES8_m
FNDA:51,_ZN14ParticleFilter28propogateStateSingleThreadedERK5State
FNDA:51,_ZN14ParticleFilter27propogateStateMultiThreadedERK5State
FNDA:1632,_ZZN14ParticleFilter27propogateStateMultiThreadedERK5StateENKUlRKSt6vectorIS0_SaIS0_EES2_RKS3_IlSaIlEEE_clES7_S2_SB_
FNDA:52,_ZN14ParticleFilter27updateWeightsSingleThreadedEdd
FNDA:52,_ZN14ParticleFilter26updateWeightsMultiThreadedEdd
FNDA:1664,_ZZN14ParticleFilter26updateWeightsMultiThreadedEddENKUlRKSt6vectorI5StateSaIS1_EERS0_IdSaIdEERKS0_IlSaIlEEE_clES5_S8_SC_
FNDA:1664,_ZZN14ParticleFilter26updateWeightsMultiThreadedEddENKUlddRSt6vectorIdSaIdEES3_RKS0_IlSaIlEEE_clEddS3_S3_S7_
FNDA:50,_ZN14ParticleFilter22resampleSingleThreadedEv
FNDA:50,_ZN14ParticleFilter21resampleMultiThreadedEv
FNDA:1600,_ZZN14ParticleFilter21resampleMultiThreadedEvENKUlRKSt6vectorIdSaIdEEddRS0_IlSaIlEERKS6_E_clES4_ddS7_S9_
FNDA:1600,_ZZN14ParticleFilter21resampleMultiThreadedEvENKUlRKSt6vectorIlSaIlEERKS0_I5StateSaIS5_EERS7_S4_E_clES4_S9_SA_S4_
FNDA:50,_ZN14ParticleFilter30workEfficientParallelPrefixSumERKSt6vectorIdSaIdEERS2_
FNDA:1650,_ZZN14ParticleFilter30workEfficientParallelPrefixSumERKSt6vectorIdSaIdEERS2_ENKUlllS4_S5_E_clEllS4_S5_
FNDA:1550,_ZZN14ParticleFilter30workEfficientParallelPrefixSumERKSt6vectorIdSaIdEERS2_ENKUllldS5_E_clElldS5_
FNDA:1650,_ZL10splitmix64Rm
FNDA:52,_ZN14ParticleFilter16normalizeWeightsEv
FNDA:52,_ZN14ParticleFilter24normalizeWeightsParallelEv
FNDA:1664,_ZZN14ParticleFilter24normalizeWeightsParallelEvENKUlRSt6vectorIdSaIdEERKS0_IlSaIlEEE_clES3_S7_
FNDA:1664,_ZZN14ParticleFilter24normalizeWeightsParallelEvENKUlRSt6vectorIdSaIdEEdRKS0_IlSaIlEEE_clES3_dS7_
FNDA:9,_ZN14ParticleFilterC2ERK9PF_ParamsSt8functionIFddddEES3_IFvR5StateRKS6_EEb
FNDA:9,_ZN14ParticleFilter19initializeVariablesEv
FNF:34
FNH:33
DA:59,1650
DA:61,1650
DA:62,1650
DA:63,1650
DA:64,1650
DA:67,9
DA:70,9
DA:71,9
DA:72,9
DA:73,18
DA:74,9
DA:75,9
DA:76,27
DA:78,9
DA:80,5
DA:81,5
DA:82,5
DA:85,9
DA:87,9
DA:88,9
DA:90,9
DA:92,9
DA:93,9
DA:94,9
DA:95,9
DA:96,9
DA:97,9
DA:98,9
DA:100,9
DA:102,9
DA:103,9
DA:105,9
DA:106,900009
DA:108,900000
DA:109,900000
DA:110,900000
DA:111,900000
DA:113,9
DA:115,106
DA:117,106
DA:119,53
DA:123,53
DA:127,100
DA:129,100
DA:131,50
DA:135,50
DA:137,100
DA:139,102
DA:141,102
DA:143,51
DA:147,51
DA:149,102
DA:151,104
DA:153,104
DA:155,52
DA:159,52
DA:161,104
DA:163,100
DA:165,100
DA:167,50
DA:171,50
DA:173,100
DA:175,0
DA:177,0
DA:178,0
DA:180,0
DA:181,0
DA:184,0
DA:185,0
DA:187,0
DA:189,0
DA:191,0
DA:195,0
DA:196,0
DA:200,53
DA:207,53
DA:208,53
DA:210,5300053
DA:212,5300000
DA:213,5300000
DA:216,53
DA:219,53
DA:225,1696
DA:228,1696
DA:229,1696
DA:230,5301696
DA:232,5300000
DA:233,5300000
DA:235,1696
DA:239,53
DA:240,1749
DA:242,1696
DA:243,1696
DA:244,1696
DA:246,53
DA:247,53
DA:248,53
DA:251,1749
DA:253,1696
DA:254,1696
DA:255,1696
DA:258,53
DA:259,53
DA:261,50
DA:267,50
DA:268,50
DA:269,50
DA:270,50
DA:272,5000050
DA:274,5000000
DA:275,5000000
DA:277,50
DA:279,50
DA:285,1600
DA:289,1600
DA:290,1600
DA:293,1600
DA:294,1600
DA:296,5001600
DA:298,5000000
DA:299,5000000
DA:301,1650
DA:303,50
DA:304,1650
DA:307,1600
DA:309,1600
DA:310,1600
DA:311,3200
DA:312,1600
DA:313,1600
DA:314,50
DA:315,50
DA:317,51
DA:323,5100051
DA:325,5100000
DA:327,51
DA:329,51
DA:335,1632
DA:339,5101632
DA:341,5100000
DA:343,1683
DA:345,51
DA:346,1683
DA:348,1632
DA:349,1632
DA:351,3264
DA:352,1632
DA:353,1632
DA:354,51
DA:355,51
DA:357,52
DA:363,5200052
DA:365,5200000
DA:368,5200052
DA:370,5200000
DA:372,5200000
DA:377,52
DA:378,52
DA:380,52
DA:386,1664
DA:388,5201664
DA:390,5200000
DA:392,1664
DA:394,1664
DA:396,5201664
DA:398,5200000
DA:400,5200000
DA:403,1716
DA:406,52
DA:407,1716
DA:409,1664
DA:410,1664
DA:411,1664
DA:412,52
DA:415,1716
DA:417,1664
DA:418,1664
DA:419,1664
DA:420,52
DA:422,52
DA:423,52
DA:425,50
DA:432,50
DA:433,5000050
DA:435,5000000
DA:436,5000000
DA:440,50
DA:441,50
DA:443,50
DA:446,50
DA:447,5000050
DA:449,5000000
DA:450,9954248
DA:452,4954248
DA:454,5000000
DA:458,5000050
DA:460,5000000
DA:463,50
DA:464,50
DA:465,50
DA:467,50
DA:473,1600
DA:479,1600
DA:482,1600
DA:487,1600
DA:489,5001600
DA:491,5000000
DA:492,9932661
DA:494,4932661
DA:496,5000000
DA:498,1600
DA:500,1600
DA:505,5001600
DA:507,5000000
DA:509,1600
DA:511,50
DA:514,50
DA:515,50
DA:516,50
DA:517,50
DA:521,50
DA:522,1650
DA:524,1600
DA:525,1600
DA:526,1600
DA:527,50
DA:530,1650
DA:532,1600
DA:533,1600
DA:534,1600
DA:535,50
DA:537,50
DA:538,50
DA:539,50
DA:541,50
DA:547,1650
DA:549,5003250
DA:551,5001600
DA:553,1650
DA:557,4999950
DA:560,1650
DA:562,1550
DA:564,4845300
DA:566,4843750
DA:568,1550
DA:570,50
DA:571,50
DA:574,50
DA:575,1650
DA:577,1600
DA:578,1600
DA:579,1600
DA:580,1600
DA:581,1600
DA:582,50
DA:585,50
DA:586,1650
DA:588,1600
DA:589,1600
DA:590,1600
DA:592,50
DA:595,1600
DA:597,1550
DA:598,1550
DA:599,1550
DA:600,1550
DA:601,1550
DA:603,50
DA:605,50
DA:607,52
DA:613,52
DA:615,5200052
DA:617,5200000
DA:619,52
DA:621,52
DA:627,1664
DA:629,1664
DA:630,5201664
DA:632,5200000
DA:634,1664
DA:637,1664
DA:639,1664
DA:640,5201664
DA:642,5200000
DA:644,1664
DA:647,52
DA:648,1716
DA:650,1664
DA:651,1664
DA:652,1664
DA:653,52
DA:656,52
DA:657,1716
DA:659,1664
DA:663,52
DA:664,1716
DA:666,1664
DA:667,1664
DA:668,1664
DA:669,52
DA:670,52
LF:301
LH:289
end_of_record
TN:
SF:/mnt/c/Users/mount/NAS/MattDocuments/TORC/MultithreadedParticleFilter/src/state_functions.cpp
FN:49,53,_Z14sensorFunctionRK5State
FN:55,61,_Z18likelihoodFunctionddd
FN:64,71,_Z16generateWaypointv
FN:73,90,_Z15moveActualStateR5StateS0_
FN:92,108,_Z18moveEstimatedStateR5StateRKS_
FNDA:10400104,_Z14sensorFunctionRK5State
FNDA:10400000,_Z18likelihoodFunctionddd
FNDA:0,_Z16generateWaypointv
FNDA:0,_Z15moveActualStateR5StateS0_
FNDA:10200102,_Z18moveEstimatedStateR5StateRKS_
FNF:5
FNH:3
DA:49,10400104
DA:52,10400104
DA:55,10400000
DA:57,10400000
DA:60,10400000
DA:64,0
DA:68,0
DA:69,0
DA:70,0
DA:73,0
DA:75,0
DA:76,0
DA:77,0
DA:79,0
DA:81,0
DA:82,0
DA:86,0
DA:87,0
DA:88,0
DA:90,0
DA:92,10200102
DA:94,10200102
DA:95,10200102
DA:96,10200102
DA:98,10200102
DA:100,5799602
DA:101,5799602
DA:105,4400500
DA:106,4400500
DA:108,10200102
LF:30
LH:15
end_of_record
TN:
SF:/mnt/c/Users/mount/NAS/MattDocuments/TORC/MultithreadedParticleFilter/src/tests/particle_filter_tests.cpp
FN:107,107,_ZL72gtest_TestMultiAndSingleThreadedParticleFilterParamsTests_EvalGenerator_v
FN:107,107,_ZL75gtest_TestMultiAndSingleThreadedParticleFilterParamsTests_EvalGenerateName_RKN7testing13TestParamInfoIbEE
FN:34,34,_ZN57ParticleFilterTests_TestConstructionAndInitalization_Test8TestBodyEv
FN:34,34,_ZN57ParticleFilterTests_TestConstructionAndInitalization_TestC2Ev
FN:34,34,_ZN57ParticleFilterTests_TestConstructionAndInitalization_TestD0Ev
FN:34,34,_ZN57ParticleFilterTests_TestConstructionAndInitalization_TestD2Ev
FN:40,54,_ZN42ParticleFilterParamsTests_TestGetXHat_Test13AddToRegistryEv
FN:40,54,_ZN42ParticleFilterParamsTests_TestGetXHat_Test8TestBodyEv
FN:40,54,_ZN42ParticleFilterParamsTests_TestGetXHat_TestC2Ev
FN:56,67,_ZN48ParticleFilterParamsTests_TestUpdateWeights_Test13AddToRegistryEv
FN:56,67,_ZN48ParticleFilterParamsTests_TestUpdateWeights_Test8TestBodyEv
FN:56,67,_ZN48ParticleFilterParamsTests_TestUpdateWeights_TestC2Ev
FN:69,82,_ZN49ParticleFilterParamsTests_TestPropogateState_Test13AddToRegistryEv
FN:69,82,_ZN49ParticleFilterParamsTests_TestPropogateState_Test8TestBodyEv
FN:69,82,_ZN49ParticleFilterParamsTests_TestPropogateState_TestC2Ev
FN:8,18,_ZN19ParticleFilterTests5SetUpEv
FN:84,105,_ZN57ParticleFilterParamsTests_TestFullParticleFilterLoop_Test13AddToRegistryEv
FN:84,105,_ZN57ParticleFilterParamsTests_TestFullParticleFilterLoop_Test8TestBodyEv
FN:84,105,_ZN57ParticleFilterParamsTests_TestFullParticleFilterLoop_TestC2Ev
FNDA:4,_ZL72gtest_TestMultiAndSingleThreadedParticleFilterParamsTests_EvalGenerator_v
FNDA:8,_ZL75gtest_TestMultiAndSingleThreadedParticleFilterParamsTests_EvalGenerateName_RKN7testing13TestParamInfoIbEE
FNDA:1,_ZN57ParticleFilterTests_TestConstructionAndInitalization_Test8TestBodyEv
FNDA:1,_ZN57ParticleFilterTests_TestConstructionAndInitalization_TestC2Ev
FNDA:1,_ZN57ParticleFilterTests_TestConstructionAndInitalization_TestD0Ev
FNDA:1,_ZN57ParticleFilterTests_TestConstructionAndInitalization_TestD2Ev
FNDA:1,_ZN42ParticleFilterParamsTests_TestGetXHat_Test13AddToRegistryEv
FNDA:2,_ZN42ParticleFilterParamsTests_TestGetXHat_Test8TestBodyEv
FNDA:2,_ZN42ParticleFilterParamsTests_TestGetXHat_TestC2Ev
FNDA:1,_ZN48ParticleFilterParamsTests_TestUpdateWeights_Test13AddToRegistryEv
FNDA:2,_ZN48ParticleFilterParamsTests_TestUpdateWeights_Test8TestBodyEv
FNDA:2,_ZN48ParticleFilterParamsTests_TestUpdateWeights_TestC2Ev
FNDA:1,_ZN49ParticleFilterParamsTests_TestPropogateState_Test13AddToRegistryEv
FNDA:2,_ZN49ParticleFilterParamsTests_TestPropogateState_Test8TestBodyEv
FNDA:2,_ZN49ParticleFilterParamsTests_TestPropogateState_TestC2Ev
FNDA:9,_ZN19ParticleFilterTests5SetUpEv
FNDA:1,_ZN57ParticleFilterParamsTests_TestFullParticleFilterLoop_Test13AddToRegistryEv
FNDA:2,_ZN57ParticleFilterParamsTests_TestFullParticleFilterLoop_Test8TestBodyEv
FNDA:2,_ZN57ParticleFilterParamsTests_TestFullParticleFilterLoop_TestC2Ev
FNF:19
FNH:19
DA:8,9
DA:10,9
DA:11,9
DA:12,9
DA:13,9
DA:14,9
DA:15,9
DA:16,9
DA:17,9
DA:18,9
DA:34,4
DA:36,1
DA:37,1
DA:38,1
DA:40,11
DA:42,2
DA:44,2
DA:45,2
DA:47,2
DA:51,2
DA:52,2
DA:53,2
DA:54,2
DA:56,11
DA:58,2
DA:60,2
DA:61,2
DA:62,2
DA:64,2
DA:65,2
DA:66,2
DA:67,2
DA:69,11
DA:71,2
DA:73,2
DA:74,2
DA:75,2
DA:76,2
DA:78,2
DA:79,2
DA:80,2
DA:81,2
DA:82,2
DA:84,11
DA:86,2
DA:88,2
DA:89,2
DA:90,102
DA:92,100
DA:93,100
DA:94,100
DA:96,100
DA:97,100
DA:99,100
DA:100,100
DA:102,100
DA:103,100
DA:105,2
DA:107,12
LF:59
LH:59
end_of_record
TN:
SF:/mnt/c/Users/mount/NAS/MattDocuments/TORC/MultithreadedParticleFilter/src/thread_pool.hpp
FN:146,170,_ZN10ThreadPool7AddTaskIRZN14ParticleFilter21resampleMultiThreadedEvEUlRKSt6vectorIdSaIdEEddRS2_IlSaIlEERKS8_E_JSt17reference_wrapperIS4_ERdRKdSE_IS8_ESE_ISA_EEEESt6futureIDTclfp_spfp0_EEEOT_DpOT0_
FN:146,170,_ZN10ThreadPool7AddTaskIRZN14ParticleFilter21resampleMultiThreadedEvEUlRKSt6vectorIlSaIlEERKS2_I5StateSaIS7_EERS9_S6_E_JSt17reference_wrapperIS4_ESF_IS9_ESH_SF_IS5_EEEESt6futureIDTclfp_spfp0_EEEOT_DpOT0_
FN:146,170,_ZN10ThreadPool7AddTaskIRZN14ParticleFilter24normalizeWeightsParallelEvEUlRSt6vectorIdSaIdEERKS2_IlSaIlEEE_JSt17reference_wrapperIS4_ESC_IS8_EEEESt6futureIDTclfp_spfp0_EEEOT_DpOT0_
FN:146,170,_ZN10ThreadPool7AddTaskIRZN14ParticleFilter24normalizeWeightsParallelEvEUlRSt6vectorIdSaIdEEdRKS2_IlSaIlEEE_JSt17reference_wrapperIS4_ERdSC_IS8_EEEESt6futureIDTclfp_spfp0_EEEOT_DpOT0_
FN:146,170,_ZN10ThreadPool7AddTaskIRZN14ParticleFilter26updateWeightsMultiThreadedEddEUlRKSt6vectorI5StateSaIS3_EERS2_IdSaIdEERKS2_IlSaIlEEE_JSt17reference_wrapperIS5_ESH_IS9_ESH_ISD_EEEESt6futureIDTclfp_spfp0_EEEOT_DpOT0_
FN:146,170,_ZN10ThreadPool7AddTaskIRZN14ParticleFilter26updateWeightsMultiThreadedEddEUlddRSt6vectorIdSaIdEES5_RKS2_IlSaIlEEE_JRKdSD_St17reference_wrapperIS4_ESF_SE_IS8_EEEESt6futureIDTclfp_spfp0_EEEOT_DpOT0_
FN:146,170,_ZN10ThreadPool7AddTaskIRZN14ParticleFilter27propogateStateMultiThreadedERK5StateEUlRKSt6vectorIS2_SaIS2_EES4_RKS5_IlSaIlEEE_JSt17reference_wrapperIS7_ES4_SG_ISC_EEEESt6futureIDTclfp_spfp0_EEEOT_DpOT0_
FN:146,170,_ZN10ThreadPool7AddTaskIRZN14ParticleFilter28mutateParticlesMultiThreadedERKSt6vectorIdSaIdEEEUlRKS2_IlSaIlEEmE_JSt17reference_wrapperIS9_ERmEEESt6futureIDTclfp_spfp0_EEEOT_DpOT0_
FN:146,170,_ZN10ThreadPool7AddTaskIRZN14ParticleFilter30workEfficientParallelPrefixSumERKSt6vectorIdSaIdEERS4_EUlllS6_S7_E_JRKlSB_St17reference_wrapperIS5_ESC_IS4_EEEESt6futureIDTclfp_spfp0_EEEOT_DpOT0_
FN:146,170,_ZN10ThreadPool7AddTaskIRZN14ParticleFilter30workEfficientParallelPrefixSumERKSt6vectorIdSaIdEERS4_EUllldS7_E_JRKlSB_RKdSt17reference_wrapperIS4_EEEESt6futureIDTclfp_spfp0_EEEOT_DpOT0_
FN:146,170,_ZN10ThreadPool7AddTaskIRZNK14ParticleFilter20getXHatMultiThreadedEvEUlRKSt6vectorI5StateSaIS3_EERKS2_IdSaIdEERKS2_IlSaIlEEE_JSt17reference_wrapperIS6_ESI_ISA_ESI_ISE_EEEESt6futureIDTclfp_spfp0_EEEOT_DpOT0_
FN:160,160,_ZZN10ThreadPool7AddTaskIRZN14ParticleFilter21resampleMultiThreadedEvEUlRKSt6vectorIdSaIdEEddRS2_IlSaIlEERKS8_E_JSt17reference_wrapperIS4_ERdRKdSE_IS8_ESE_ISA_EEEESt6futureIDTclfp_spfp0_EEEOT_DpOT0_ENKUlvE_clEv
FN:160,160,_ZZN10ThreadPool7AddTaskIRZN14ParticleFilter21resampleMultiThreadedEvEUlRKSt6vectorIlSaIlEERKS2_I5StateSaIS7_EERS9_S6_E_JSt17reference_wrapperIS4_ESF_IS9_ESH_SF_IS5_EEEESt6futureIDTclfp_spfp0_EEEOT_DpOT0_ENKUlvE_clEv
FN:160,160,_ZZN10ThreadPool7AddTaskIRZN14ParticleFilter24normalizeWeightsParallelEvEUlRSt6vectorIdSaIdEERKS2_IlSaIlEEE_JSt17reference_wrapperIS4_ESC_IS8_EEEESt6futureIDTclfp_spfp0_EEEOT_DpOT0_ENKUlvE_clEv
FN:160,160,_ZZN10ThreadPool7AddTaskIRZN14ParticleFilter24normalizeWeightsParallelEvEUlRSt6vectorIdSaIdEEdRKS2_IlSaIlEEE_JSt17reference_wrapperIS4_ERdSC_IS8_EEEESt6futureIDTclfp_spfp0_EEEOT_DpOT0_ENKUlvE_clEv
FN:160,160,_ZZN10ThreadPool7AddTaskIRZN14ParticleFilter26updateWeightsMultiThreadedEddEUlRKSt6vectorI5StateSaIS3_EERS2_IdSaIdEERKS2_IlSaIlEEE_JSt17reference_wrapperIS5_ESH_IS9_ESH_ISD_EEEESt6futureIDTclfp_spfp0_EEEOT_DpOT0_ENKUlvE_clEv
FN:160,160,_ZZN10ThreadPool7AddTaskIRZN14ParticleFilter26updateWeightsMultiThreadedEddEUlddRSt6vectorIdSaIdEES5_RKS2_IlSaIlEEE_JRKdSD_St17reference_wrapperIS4_ESF_SE_IS8_EEEESt6futureIDTclfp_spfp0_EEEOT_DpOT0_ENKUlvE_clEv
FN:160,160,_ZZN10ThreadPool7AddTaskIRZN14ParticleFilter27propogateStateMultiThreadedERK5StateEUlRKSt6vectorIS2_SaIS2_EES4_RKS5_IlSaIlEEE_JSt17reference_wrapperIS7_ES4_SG_ISC_EEEESt6futureIDTclfp_spfp0_EEEOT_DpOT0_ENKUlvE_clEv
FN:160,160,_ZZN10ThreadPool7AddTaskIRZN14ParticleFilter28mutateParticlesMultiThreadedERKSt6vectorIdSaIdEEEUlRKS2_IlSaIlEEmE_JSt17reference_wrapperIS9_ERmEEESt6futureIDTclfp_spfp0_EEEOT_DpOT0_ENKUlvE_clEv
FN:160,160,_ZZN10ThreadPool7AddTaskIRZN14ParticleFilter30workEfficientParallelPrefixSumERKSt6vectorIdSaIdEERS4_EUlllS6_S7_E_JRKlSB_St17reference_wrapperIS5_ESC_IS4_EEEESt6futureIDTclfp_spfp0_EEEOT_DpOT0_ENKUlvE_clEv
FN:160,160,_ZZN10ThreadPool7AddTaskIRZN14ParticleFilter30workEfficientParallelPrefixSumERKSt6vectorIdSaIdEERS4_EUllldS7_E_JRKlSB_RKdSt17reference_wrapperIS4_EEEESt6futureIDTclfp_spfp0_EEEOT_DpOT0_ENKUlvE_clEv
FN:160,160,_ZZN10ThreadPool7AddTaskIRZNK14ParticleFilter20getXHatMultiThreadedEvEUlRKSt6vectorI5StateSaIS3_EERKS2_IdSaIdEERKS2_IlSaIlEEE_JSt17reference_wrapperIS6_ESI_ISA_ESI_ISE_EEEESt6futureIDTclfp_spfp0_EEEOT_DpOT0_ENKUlvE_clEv
FN:173,188,_ZN10ThreadPool8ShutdownEv
FN:193,195,_ZN10ThreadPool12ThreadWorkerC2EPS_
FN:197,220,_ZN10ThreadPool12ThreadWorkerclEv
FN:203,207,_ZZN10ThreadPool12ThreadWorkerclEvENKUlvE_clEv
FN:55,62,_ZN10ThreadPoolC2El
FN:64,67,_ZN10ThreadPoolD2Ev
FN:81,94,_ZN10ThreadPool25waitUntilAllTasksFinishedEv
FN:96,114,_ZN10ThreadPool19getSplitWorkIndicesEl
FNDA:1600,_ZN10ThreadPool7AddTaskIRZN14ParticleFilter21resampleMultiThreadedEvEUlRKSt6vectorIdSaIdEEddRS2_IlSaIlEERKS8_E_JSt17reference_wrapperIS4_ERdRKdSE_IS8_ESE_ISA_EEEESt6futureIDTclfp_spfp0_EEEOT_DpOT0_
FNDA:1600,_ZN10ThreadPool7AddTaskIRZN14ParticleFilter21resampleMultiThreadedEvEUlRKSt6vectorIlSaIlEERKS2_I5StateSaIS7_EERS9_S6_E_JSt17reference_wrapperIS4_ESF_IS9_ESH_SF_IS5_EEEESt6futureIDTclfp_spfp0_EEEOT_DpOT0_
FNDA:1664,_ZN10ThreadPool7AddTaskIRZN14ParticleFilter24normalizeWeightsParallelEvEUlRSt6vectorIdSaIdEERKS2_IlSaIlEEE_JSt17reference_wrapperIS4_ESC_IS8_EEEESt6futureIDTclfp_spfp0_EEEOT_DpOT0_
FNDA:1664,_ZN10ThreadPool7AddTaskIRZN14ParticleFilter24normalizeWeightsParallelEvEUlRSt6vectorIdSaIdEEdRKS2_IlSaIlEEE_JSt17reference_wrapperIS4_ERdSC_IS8_EEEESt6futureIDTclfp_spfp0_EEEOT_DpOT0_
FNDA:1664,_ZN10ThreadPool7AddTaskIRZN14ParticleFilter26updateWeightsMultiThreadedEddEUlRKSt6vectorI5StateSaIS3_EERS2_IdSaIdEERKS2_IlSaIlEEE_JSt17reference_wrapperIS5_ESH_IS9_ESH_ISD_EEEESt6futureIDTclfp_spfp0_EEEOT_DpOT0_
FNDA:1664,_ZN10ThreadPool7AddTaskIRZN14ParticleFilter26updateWeightsMultiThreadedEddEUlddRSt6vectorIdSaIdEES5_RKS2_IlSaIlEEE_JRKdSD_St17reference_wrapperIS4_ESF_SE_IS8_EEEESt6futureIDTclfp_spfp0_EEEOT_DpOT0_
FNDA:1632,_ZN10ThreadPool7AddTaskIRZN14ParticleFilter27propogateStateMultiThreadedERK5StateEUlRKSt6vectorIS2_SaIS2_EES4_RKS5_IlSaIlEEE_JSt17reference_wrapperIS7_ES4_SG_ISC_EEEESt6futureIDTclfp_spfp0_EEEOT_DpOT0_
FNDA:1600,_ZN10ThreadPool7AddTaskIRZN14ParticleFilter28mutateParticlesMultiThreadedERKSt6vectorIdSaIdEEEUlRKS2_IlSaIlEEmE_JSt17reference_wrapperIS9_ERmEEESt6futureIDTclfp_spfp0_EEEOT_DpOT0_
FNDA:1600,_ZN10ThreadPool7AddTaskIRZN14ParticleFilter30workEfficientParallelPrefixSumERKSt6vectorIdSaIdEERS4_EUlllS6_S7_E_JRKlSB_St17reference_wrapperIS5_ESC_IS4_EEEESt6futureIDTclfp_spfp0_EEEOT_DpOT0_
FNDA:1550,_ZN10ThreadPool7AddTaskIRZN14ParticleFilter30workEfficientParallelPrefixSumERKSt6vectorIdSaIdEERS4_EUllldS7_E_JRKlSB_RKdSt17reference_wrapperIS4_EEEESt6futureIDTclfp_spfp0_EEEOT_DpOT0_
FNDA:1696,_ZN10ThreadPool7AddTaskIRZNK14ParticleFilter20getXHatMultiThreadedEvEUlRKSt6vectorI5StateSaIS3_EERKS2_IdSaIdEERKS2_IlSaIlEEE_JSt17reference_wrapperIS6_ESI_ISA_ESI_ISE_EEEESt6futureIDTclfp_spfp0_EEEOT_DpOT0_
FNDA:1600,_ZZN10ThreadPool7AddTaskIRZN14ParticleFilter21resampleMultiThreadedEvEUlRKSt6vectorIdSaIdEEddRS2_IlSaIlEERKS8_E_JSt17reference_wrapperIS4_ERdRKdSE_IS8_ESE_ISA_EEEESt6futureIDTclfp_spfp0_EEEOT_DpOT0_ENKUlvE_clEv
FNDA:1600,_ZZN10ThreadPool7AddTaskIRZN14ParticleFilter21resampleMultiThreadedEvEUlRKSt6vectorIlSaIlEERKS2_I5StateSaIS7_EERS9_S6_E_JSt17reference_wrapperIS4_ESF_IS9_ESH_SF_IS5_EEEESt6futureIDTclfp_spfp0_EEEOT_DpOT0_ENKUlvE_clEv
FNDA:1664,_ZZN10ThreadPool7AddTaskIRZN14ParticleFilter24normalizeWeightsParallelEvEUlRSt6vectorIdSaIdEERKS2_IlSaIlEEE_JSt17reference_wrapperIS4_ESC_IS8_EEEESt6futureIDTclfp_spfp0_EEEOT_DpOT0_ENKUlvE_clEv
FNDA:1664,_ZZN10ThreadPool7AddTaskIRZN14ParticleFilter24normalizeWeightsParallelEvEUlRSt6vectorIdSaIdEEdRKS2_IlSaIlEEE_JSt17reference_wrapperIS4_ERdSC_IS8_EEEESt6futureIDTclfp_spfp0_EEEOT_DpOT0_ENKUlvE_clEv
FNDA:1664,_ZZN10ThreadPool7AddTaskIRZN14ParticleFilter26updateWeightsMultiThreadedEddEUlRKSt6vectorI5StateSaIS3_EERS2_IdSaIdEERKS2_IlSaIlEEE_JSt17reference_wrapperIS5_ESH_IS9_ESH_ISD_EEEESt6futureIDTclfp_spfp0_EEEOT_DpOT0_ENKUlvE_clEv
FNDA:1664,_ZZN10ThreadPool7AddTaskIRZN14ParticleFilter26updateWeightsMultiThreadedEddEUlddRSt6vectorIdSaIdEES5_RKS2_IlSaIlEEE_JRKdSD_St17reference_wrapperIS4_ESF_SE_IS8_EEEESt6futureIDTclfp_spfp0_EEEOT_DpOT0_ENKUlvE_clEv
FNDA:1632,_ZZN10ThreadPool7AddTaskIRZN14ParticleFilter27propogateStateMultiThreadedERK5StateEUlRKSt6vectorIS2_SaIS2_EES4_RKS5_IlSaIlEEE_JSt17reference_wrapperIS7_ES4_SG_ISC_EEEESt6futureIDTclfp_spfp0_EEEOT_DpOT0_ENKUlvE_clEv
FNDA:1600,_ZZN10ThreadPool7AddTaskIRZN14ParticleFilter28mutateParticlesMultiThreadedERKSt6vectorIdSaIdEEEUlRKS2_IlSaIlEEmE_JSt17reference_wrapperIS9_ERmEEESt6futureIDTclfp_spfp0_EEEOT_DpOT0_ENKUlvE_clEv
FNDA:1600,_ZZN10ThreadPool7AddTaskIRZN14ParticleFilter30workEfficientParallelPrefixSumERKSt6vectorIdSaIdEERS4_EUlllS6_S7_E_JRKlSB_St17reference_wrapperIS5_ESC_IS4_EEEESt6futureIDTclfp_spfp0_EEEOT_DpOT0_ENKUlvE_clEv
FNDA:1550,_ZZN10ThreadPool7AddTaskIRZN14ParticleFilter30workEfficientParallelPrefixSumERKSt6vectorIdSaIdEERS4_EUllldS7_E_JRKlSB_RKdSt17reference_wrapperIS4_EEEESt6futureIDTclfp_spfp0_EEEOT_DpOT0_ENKUlvE_clEv
FNDA:1696,_ZZN10ThreadPool7AddTaskIRZNK14ParticleFilter20getXHatMultiThreadedEvEUlRKSt6vectorI5StateSaIS3_EERKS2_IdSaIdEERKS2_IlSaIlEEE_JSt17reference_wrapperIS6_ESI_ISA_ESI_ISE_EEEESt6futureIDTclfp_spfp0_EEEOT_DpOT0_ENKUlvE_clEv
FNDA:5,_ZN10ThreadPool8ShutdownEv
FNDA:160,_ZN10ThreadPool12ThreadWorkerC2EPS_
FNDA:160,_ZN10ThreadPool12ThreadWorkerclEv
FNDA:36188,_ZZN10ThreadPool12ThreadWorkerclEvENKUlvE_clEv
FNDA:5,_ZN10ThreadPoolC2El
FNDA:5,_ZN10ThreadPoolD2Ev
FNDA:562,_ZN10ThreadPool25waitUntilAllTasksFinishedEv
FNDA:5,_ZN10ThreadPool19getSplitWorkIndicesEl
FNF:30
FNH:30
DA:55,15
DA:57,5
DA:58,165
DA:60,160
DA:62,5
DA:64,5
DA:66,5
DA:67,5
DA:81,562
DA:86,84350
DA:87,161049
DA:89,562
DA:91,84350
DA:92,83788
DA:93,83788
DA:94,562
DA:96,5
DA:98,5
DA:99,5
DA:100,165
DA:102,160
DA:104,160
DA:105,160
DA:106,500160
DA:108,500000
DA:110,160
DA:111,160
DA:113,5
DA:114,0
DA:146,17934
DA:150,17934
DA:158,17934
DA:160,35868
DA:163,17934
DA:164,17934
DA:166,17934
DA:167,17934
DA:169,35868
DA:170,17934
DA:173,5
DA:176,5
DA:177,5
DA:178,5
DA:179,5
DA:181,165
DA:183,160
DA:185,160
DA:188,5
DA:193,160
DA:195,160
DA:197,160
DA:199,160
DA:200,18414
DA:202,18094
DA:203,18094
DA:206,36188
DA:208,18094
DA:210,18094
DA:212,17934
DA:213,17934
DA:215,17934
DA:216,17934
DA:217,17934
DA:218,17934
DA:220,160
LF:65
LH:64
end_of_record
